target datalayout = "e-m:e-p270:32:32-p271:32:32-p272:64:64-i64:64-i128:128-f80:128-n8:16:32:64-S128"
target triple = "x86_64-pc-linux-gnu"

%struct._lv_cache_ops_t = type { ptr, ptr, ptr }
%struct._lv_cache_class_t = type { ptr, ptr, ptr, ptr, ptr, ptr, ptr, ptr, ptr, ptr, ptr }
%struct._lv_cache_t = type { ptr, i32, i32, i32, %struct._lv_cache_ops_t, i32, ptr }

; Function Attrs: nounwind uwtable
define internal zeroext i1 @cache_evict_one_internal_no_lock(ptr noundef %0, ptr noundef %1) #0 {
  %3 = alloca i1, align 1
  %4 = alloca ptr, align 8
  %5 = alloca ptr, align 8
  %6 = alloca ptr, align 8
  %7 = alloca i32, align 4
  store ptr %0, ptr %4, align 8, !tbaa !3
  store ptr %1, ptr %5, align 8, !tbaa !3
  call void @llvm.lifetime.start.p0(i64 8, ptr %6) #4
  %8 = load ptr, ptr %4, align 8, !tbaa !3
  %9 = getelementptr inbounds nuw %struct._lv_cache_t, ptr %8, i32 0, i32 0
  %10 = load ptr, ptr %9, align 8, !tbaa !11
  %11 = getelementptr inbounds nuw %struct._lv_cache_class_t, ptr %10, i32 0, i32 8
  %12 = load ptr, ptr %11, align 8, !tbaa !35
  %13 = load ptr, ptr %4, align 8, !tbaa !3
  %14 = load ptr, ptr %5, align 8, !tbaa !3
  %15 = call ptr %12(ptr noundef %13, ptr noundef %14)
  store ptr %15, ptr %6, align 8, !tbaa !3
  %16 = load ptr, ptr %6, align 8, !tbaa !3
  %17 = icmp eq ptr %16, null
  br i1 %17, label %18, label %22

18:                                               ; preds = %2
  br label %19

19:                                               ; preds = %18
  br label %20

20:                                               ; preds = %19
  br label %21

21:                                               ; preds = %20
  store i1 false, ptr %3, align 1
  store i32 1, ptr %7, align 4
  br label %39

22:                                               ; preds = %2
  %23 = load ptr, ptr %4, align 8, !tbaa !3
  %24 = getelementptr inbounds nuw %struct._lv_cache_t, ptr %23, i32 0, i32 0
  %25 = load ptr, ptr %24, align 8, !tbaa !11
  %26 = getelementptr inbounds nuw %struct._lv_cache_class_t, ptr %25, i32 0, i32 5
  %27 = load ptr, ptr %26, align 8, !tbaa !33
  %28 = load ptr, ptr %4, align 8, !tbaa !3
  %29 = load ptr, ptr %6, align 8, !tbaa !3
  %30 = load ptr, ptr %5, align 8, !tbaa !3
  call void %27(ptr noundef %28, ptr noundef %29, ptr noundef %30)
  %31 = load ptr, ptr %4, align 8, !tbaa !3
  %32 = getelementptr inbounds nuw %struct._lv_cache_t, ptr %31, i32 0, i32 4
  %33 = getelementptr inbounds nuw %struct._lv_cache_ops_t, ptr %32, i32 0, i32 2
  %34 = load ptr, ptr %33, align 8, !tbaa !22
  %35 = load ptr, ptr %6, align 8, !tbaa !3
  %36 = call ptr @lv_cache_entry_get_data(ptr noundef %35)
  %37 = load ptr, ptr %5, align 8, !tbaa !3
  call void %34(ptr noundef %36, ptr noundef %37)
  %38 = load ptr, ptr %6, align 8, !tbaa !3
  call void @lv_cache_entry_delete(ptr noundef %38)
  store i1 true, ptr %3, align 1
  store i32 1, ptr %7, align 4
  br label %39

39:                                               ; preds = %22, %21
  call void @llvm.lifetime.end.p0(i64 8, ptr %6) #4
  %40 = load i1, ptr %3, align 1
  ret i1 %40
}

; Function Attrs: nounwind uwtable
define internal ptr @cache_add_internal_no_lock(ptr noundef %0, ptr noundef %1, ptr noundef %2) #0 {
  %4 = alloca ptr, align 8
  %5 = alloca ptr, align 8
  %6 = alloca ptr, align 8
  %7 = alloca ptr, align 8
  %8 = alloca i32, align 4
  %9 = alloca i32, align 4
  %10 = alloca ptr, align 8
  store ptr %0, ptr %5, align 8, !tbaa !3
  store ptr %1, ptr %6, align 8, !tbaa !3
  store ptr %2, ptr %7, align 8, !tbaa !3
  call void @llvm.lifetime.start.p0(i64 4, ptr %8) #4
  %11 = load ptr, ptr %5, align 8, !tbaa !3
  %12 = getelementptr inbounds nuw %struct._lv_cache_t, ptr %11, i32 0, i32 0
  %13 = load ptr, ptr %12, align 8, !tbaa !11
  %14 = getelementptr inbounds nuw %struct._lv_cache_class_t, ptr %13, i32 0, i32 9
  %15 = load ptr, ptr %14, align 8, !tbaa !23
  %16 = load ptr, ptr %5, align 8, !tbaa !3
  %17 = load ptr, ptr %6, align 8, !tbaa !3
  %18 = load ptr, ptr %7, align 8, !tbaa !3
  %19 = call i32 %15(ptr noundef %16, ptr noundef %17, i64 noundef 0, ptr noundef %18)
  store i32 %19, ptr %8, align 4, !tbaa !24
  %20 = load i32, ptr %8, align 4, !tbaa !24
  %21 = icmp eq i32 %20, 1
  br i1 %21, label %22, label %26

22:                                               ; preds = %3
  br label %23

23:                                               ; preds = %22
  br label %24

24:                                               ; preds = %23
  br label %25

25:                                               ; preds = %24
  store ptr null, ptr %4, align 8
  store i32 1, ptr %9, align 4
  br label %59

26:                                               ; preds = %3
  br label %27

27:                                               ; preds = %38, %26
  %28 = load i32, ptr %8, align 4, !tbaa !24
  %29 = icmp eq i32 %28, 2
  br i1 %29, label %30, label %48

30:                                               ; preds = %27
  %31 = load ptr, ptr %5, align 8, !tbaa !3
  %32 = load ptr, ptr %7, align 8, !tbaa !3
  %33 = call zeroext i1 @cache_evict_one_internal_no_lock(ptr noundef %31, ptr noundef %32)
  %34 = zext i1 %33 to i32
  %35 = icmp eq i32 %34, 0
  br i1 %35, label %36, label %37

36:                                               ; preds = %30
  store ptr null, ptr %4, align 8
  store i32 1, ptr %9, align 4
  br label %59

37:                                               ; preds = %30
  br label %38

38:                                               ; preds = %37
  %39 = load ptr, ptr %5, align 8, !tbaa !3
  %40 = getelementptr inbounds nuw %struct._lv_cache_t, ptr %39, i32 0, i32 0
  %41 = load ptr, ptr %40, align 8, !tbaa !11
  %42 = getelementptr inbounds nuw %struct._lv_cache_class_t, ptr %41, i32 0, i32 9
  %43 = load ptr, ptr %42, align 8, !tbaa !23
  %44 = load ptr, ptr %5, align 8, !tbaa !3
  %45 = load ptr, ptr %6, align 8, !tbaa !3
  %46 = load ptr, ptr %7, align 8, !tbaa !3
  %47 = call i32 %43(ptr noundef %44, ptr noundef %45, i64 noundef 0, ptr noundef %46)
  store i32 %47, ptr %8, align 4, !tbaa !24
  br label %27, !llvm.loop !25

48:                                               ; preds = %27
  call void @llvm.lifetime.start.p0(i64 8, ptr %10) #4
  %49 = load ptr, ptr %5, align 8, !tbaa !3
  %50 = getelementptr inbounds nuw %struct._lv_cache_t, ptr %49, i32 0, i32 0
  %51 = load ptr, ptr %50, align 8, !tbaa !11
  %52 = getelementptr inbounds nuw %struct._lv_cache_class_t, ptr %51, i32 0, i32 4
  %53 = load ptr, ptr %52, align 8, !tbaa !27
  %54 = load ptr, ptr %5, align 8, !tbaa !3
  %55 = load ptr, ptr %6, align 8, !tbaa !3
  %56 = load ptr, ptr %7, align 8, !tbaa !3
  %57 = call ptr %53(ptr noundef %54, ptr noundef %55, ptr noundef %56)
  store ptr %57, ptr %10, align 8, !tbaa !3
  %58 = load ptr, ptr %10, align 8, !tbaa !3
  store ptr %58, ptr %4, align 8
  store i32 1, ptr %9, align 4
  call void @llvm.lifetime.end.p0(i64 8, ptr %10) #4
  br label %59

59:                                               ; preds = %48, %36, %25
  call void @llvm.lifetime.end.p0(i64 4, ptr %8) #4
  %60 = load ptr, ptr %4, align 8
  ret ptr %60
}

; Function Attrs: nounwind uwtable
define ptr @lv_cache_add(ptr noundef %0, ptr noundef %1, ptr noundef %2) #0 {
  %4 = alloca ptr, align 8
  %5 = alloca ptr, align 8
  %6 = alloca ptr, align 8
  %7 = alloca ptr, align 8
  %8 = alloca ptr, align 8
  store ptr %0, ptr %5, align 8, !tbaa !3
  store ptr %1, ptr %6, align 8, !tbaa !3
  store ptr %2, ptr %7, align 8, !tbaa !3
  br label %9

9:                                                ; preds = %3
  %10 = load ptr, ptr %5, align 8, !tbaa !3
  %11 = icmp ne ptr %10, null
  br i1 %11, label %16, label %12

12:                                               ; preds = %9
  br label %13

13:                                               ; preds = %12
  br label %14

14:                                               ; preds = %13
  br label %15

15:                                               ; preds = %14, %15
  br label %15

16:                                               ; preds = %9
  br label %17

17:                                               ; preds = %16
  br label %18

18:                                               ; preds = %17
  %19 = load ptr, ptr %6, align 8, !tbaa !3
  %20 = icmp ne ptr %19, null
  br i1 %20, label %25, label %21

21:                                               ; preds = %18
  br label %22

22:                                               ; preds = %21
  br label %23

23:                                               ; preds = %22
  br label %24

24:                                               ; preds = %23, %24
  br label %24

25:                                               ; preds = %18
  br label %26

26:                                               ; preds = %25
  %27 = load ptr, ptr %5, align 8, !tbaa !3
  %28 = getelementptr inbounds nuw %struct._lv_cache_t, ptr %27, i32 0, i32 5
  %29 = call i32 @lv_mutex_lock(ptr noundef %28)
  %30 = load ptr, ptr %5, align 8, !tbaa !3
  %31 = getelementptr inbounds nuw %struct._lv_cache_t, ptr %30, i32 0, i32 2
  %32 = load i32, ptr %31, align 4, !tbaa !16
  %33 = icmp eq i32 %32, 0
  br i1 %33, label %34, label %38

34:                                               ; preds = %26
  %35 = load ptr, ptr %5, align 8, !tbaa !3
  %36 = getelementptr inbounds nuw %struct._lv_cache_t, ptr %35, i32 0, i32 5
  %37 = call i32 @lv_mutex_unlock(ptr noundef %36)
  store ptr null, ptr %4, align 8
  br label %53

38:                                               ; preds = %26
  call void @llvm.lifetime.start.p0(i64 8, ptr %8) #4
  %39 = load ptr, ptr %5, align 8, !tbaa !3
  %40 = load ptr, ptr %6, align 8, !tbaa !3
  %41 = load ptr, ptr %7, align 8, !tbaa !3
  %42 = call ptr @cache_add_internal_no_lock(ptr noundef %39, ptr noundef %40, ptr noundef %41)
  store ptr %42, ptr %8, align 8, !tbaa !3
  %43 = load ptr, ptr %8, align 8, !tbaa !3
  %44 = icmp ne ptr %43, null
  br i1 %44, label %45, label %48

45:                                               ; preds = %38
  %46 = load ptr, ptr %8, align 8, !tbaa !3
  %47 = call ptr @lv_cache_entry_acquire_data(ptr noundef %46)
  br label %48

48:                                               ; preds = %45, %38
  %49 = load ptr, ptr %5, align 8, !tbaa !3
  %50 = getelementptr inbounds nuw %struct._lv_cache_t, ptr %49, i32 0, i32 5
  %51 = call i32 @lv_mutex_unlock(ptr noundef %50)
  %52 = load ptr, ptr %8, align 8, !tbaa !3
  store ptr %52, ptr %4, align 8
  call void @llvm.lifetime.end.p0(i64 8, ptr %8) #4
  br label %53

53:                                               ; preds = %48, %34
  %54 = load ptr, ptr %4, align 8
  ret ptr %54
}