; Function Attrs: nounwind uwtable
define ptr @lv_cache_add(ptr noundef %0, ptr noundef %1, ptr noundef %2) local_unnamed_addr #0 {
  %.not = icmp eq ptr %0, null
  br i1 %.not, label %.preheader, label %4

.preheader:                                       ; preds = %3, %.preheader
  br label %.preheader

4:                                                ; preds = %3
  %.not16 = icmp eq ptr %1, null
  br i1 %.not16, label %.preheader21, label %5

.preheader21:                                     ; preds = %4, %.preheader21
  br label %.preheader21

5:                                                ; preds = %4
  %6 = getelementptr inbounds nuw i8, ptr %0, i64 48
  %7 = tail call i32 @lv_mutex_lock(ptr noundef nonnull %6) #5
  %8 = getelementptr inbounds nuw i8, ptr %0, i64 12
  %9 = load i32, ptr %8, align 4, !tbaa !13
  %10 = icmp eq i32 %9, 0
  br i1 %10, label %cache_add_internal_no_lock.exit.thread, label %11

11:                                               ; preds = %5
  %12 = load ptr, ptr %0, align 8, !tbaa !8
  %13 = getelementptr inbounds nuw i8, ptr %12, i64 72
  %14 = load ptr, ptr %13, align 8, !tbaa !21
  %15 = tail call i32 %14(ptr noundef nonnull %0, ptr noundef nonnull %1, i64 noundef 0, ptr noundef %2) #5
  switch i32 %15, label %cache_add_internal_no_lock.exit [
    i32 1, label %cache_add_internal_no_lock.exit.thread
    i32 2, label %.lr.ph.i
  ]

.lr.ph.i:                                         ; preds = %11
  %16 = getelementptr inbounds nuw i8, ptr %0, i64 40
  br label %17

17:                                               ; preds = %22, %.lr.ph.i
  %18 = load ptr, ptr %0, align 8, !tbaa !8
  %19 = getelementptr inbounds nuw i8, ptr %18, i64 64
  %20 = load ptr, ptr %19, align 8, !tbaa !22
  %21 = tail call ptr %20(ptr noundef nonnull %0, ptr noundef %2) #5
  %.not.i = icmp eq ptr %21, null
  br i1 %.not.i, label %cache_add_internal_no_lock.exit.thread, label %22

22:                                               ; preds = %17
  %23 = load ptr, ptr %0, align 8, !tbaa !8
  %24 = getelementptr inbounds nuw i8, ptr %23, i64 40
  %25 = load ptr, ptr %24, align 8, !tbaa !23
  tail call void %25(ptr noundef nonnull %0, ptr noundef nonnull %21, ptr noundef %2) #5
  %26 = load ptr, ptr %16, align 8, !tbaa !20
  %27 = tail call ptr @lv_cache_entry_get_data(ptr noundef nonnull %21) #5
  tail call void %26(ptr noundef %27, ptr noundef %2) #5
  tail call void @lv_cache_entry_delete(ptr noundef nonnull %21) #5
  %28 = load ptr, ptr %0, align 8, !tbaa !8
  %29 = getelementptr inbounds nuw i8, ptr %28, i64 72
  %30 = load ptr, ptr %29, align 8, !tbaa !21
  %31 = tail call i32 %30(ptr noundef nonnull %0, ptr noundef nonnull %1, i64 noundef 0, ptr noundef %2) #5
  %32 = icmp eq i32 %31, 2
  br i1 %32, label %17, label %cache_add_internal_no_lock.exit, !llvm.loop !24

cache_add_internal_no_lock.exit:                  ; preds = %22, %11
  %33 = load ptr, ptr %0, align 8, !tbaa !8
  %34 = getelementptr inbounds nuw i8, ptr %33, i64 32
  %35 = load ptr, ptr %34, align 8, !tbaa !26
  %36 = tail call ptr %35(ptr noundef nonnull %0, ptr noundef nonnull %1, ptr noundef %2) #5
  %.not17 = icmp eq ptr %36, null
  br i1 %.not17, label %cache_add_internal_no_lock.exit.thread, label %37

37:                                               ; preds = %cache_add_internal_no_lock.exit
  %38 = tail call ptr @lv_cache_entry_acquire_data(ptr noundef nonnull %36) #5
  br label %cache_add_internal_no_lock.exit.thread

cache_add_internal_no_lock.exit.thread:           ; preds = %17, %cache_add_internal_no_lock.exit, %37, %11, %5
  %.0 = phi ptr [ null, %5 ], [ %36, %37 ], [ null, %cache_add_internal_no_lock.exit ], [ null, %11 ], [ null, %17 ]
  %39 = tail call i32 @lv_mutex_unlock(ptr noundef nonnull %6) #5
  ret ptr %.0
}